; Function Attrs: mustprogress uwtable
define dso_local void @_ZN10cmMakefile13AddDefineFlagERKNSt7__cxx1112basic_stringIcSt11char_traitsIcESaIcEEE(ptr noundef nonnull align 8 dereferenceable(3520) %0, ptr noundef nonnull align 8 dereferenceable(32) %1) local_unnamed_addr #4 align 2 {
  %3 = tail call noundef zeroext i1 @_ZNKSt7__cxx1112basic_stringIcSt11char_traitsIcESaIcEE5emptyEv(ptr noundef nonnull align 8 dereferenceable(32) %1) #29
  br i1 %3, label %9, label %4

4:                                                ; preds = %2
  %5 = getelementptr inbounds i8, ptr %0, i64 648
  tail call fastcc void @_ZL15s_AddDefineFlagRKNSt7__cxx1112basic_stringIcSt11char_traitsIcESaIcEEERS4_(ptr noundef nonnull align 8 dereferenceable(32) %1, ptr noundef nonnull align 8 dereferenceable(32) %5)
  %6 = tail call noundef zeroext i1 @_ZN10cmMakefile15ParseDefineFlagERKNSt7__cxx1112basic_stringIcSt11char_traitsIcESaIcEEEb(ptr noundef nonnull align 8 dereferenceable(3520) %0, ptr noundef nonnull align 8 dereferenceable(32) %1, i1 noundef zeroext false)
  br i1 %6, label %9, label %7

7:                                                ; preds = %4
  %8 = getelementptr inbounds i8, ptr %0, i64 616
  tail call fastcc void @_ZL15s_AddDefineFlagRKNSt7__cxx1112basic_stringIcSt11char_traitsIcESaIcEEERS4_(ptr noundef nonnull align 8 dereferenceable(32) %1, ptr noundef nonnull align 8 dereferenceable(32) %8)
  br label %9

9:                                                ; preds = %4, %2, %7
  ret void
}